target datalayout = "e-m:e-p270:32:32-p271:32:32-p272:64:64-i64:64-i128:128-f80:128-n8:16:32:64-S128"
target triple = "x86_64-pc-linux-gnu"

%struct.jv = type { i8, i8, i16, i32, %union.anon }
%union.anon = type { ptr }

@.str.154 = private unnamed_addr constant [16 x i8] c"number required\00", align 1
@.str.155 = private unnamed_addr constant [11 x i8] c"%s (%s) %s\00", align 1

; Function Attrs: nounwind uwtable
define internal { i64, ptr } @type_error(i64 %0, ptr %1, ptr noundef %2) #0 {
  %4 = alloca %struct.jv, align 8
  %5 = alloca %struct.jv, align 8
  %6 = alloca ptr, align 8
  %7 = alloca [15 x i8], align 1
  %8 = alloca ptr, align 8
  %9 = alloca %struct.jv, align 8
  %10 = getelementptr inbounds nuw { i64, ptr }, ptr %5, i32 0, i32 0
  store i64 %0, ptr %10, align 8
  %11 = getelementptr inbounds nuw { i64, ptr }, ptr %5, i32 0, i32 1
  store ptr %1, ptr %11, align 8
  store ptr %2, ptr %6, align 8, !tbaa !12
  call void @llvm.lifetime.start.p0(i64 15, ptr %7) #10
  call void @llvm.lifetime.start.p0(i64 8, ptr %8) #10
  %12 = getelementptr inbounds nuw { i64, ptr }, ptr %5, i32 0, i32 0
  %13 = load i64, ptr %12, align 8
  %14 = getelementptr inbounds nuw { i64, ptr }, ptr %5, i32 0, i32 1
  %15 = load ptr, ptr %14, align 8
  %16 = call i32 @jv_get_kind(i64 %13, ptr %15)
  %17 = call ptr @jv_kind_name(i32 noundef %16)
  store ptr %17, ptr %8, align 8, !tbaa !12
  %18 = load ptr, ptr %8, align 8, !tbaa !12
  %19 = getelementptr inbounds [15 x i8], ptr %7, i64 0, i64 0
  %20 = getelementptr inbounds nuw { i64, ptr }, ptr %5, i32 0, i32 0
  %21 = load i64, ptr %20, align 8
  %22 = getelementptr inbounds nuw { i64, ptr }, ptr %5, i32 0, i32 1
  %23 = load ptr, ptr %22, align 8
  %24 = call ptr @jv_dump_string_trunc(i64 %21, ptr %23, ptr noundef %19, i64 noundef 15)
  %25 = load ptr, ptr %6, align 8, !tbaa !12
  %26 = call { i64, ptr } (ptr, ...) @jv_string_fmt(ptr noundef @.str.155, ptr noundef %18, ptr noundef %24, ptr noundef %25)
  %27 = getelementptr inbounds nuw { i64, ptr }, ptr %9, i32 0, i32 0
  %28 = extractvalue { i64, ptr } %26, 0
  store i64 %28, ptr %27, align 8
  %29 = getelementptr inbounds nuw { i64, ptr }, ptr %9, i32 0, i32 1
  %30 = extractvalue { i64, ptr } %26, 1
  store ptr %30, ptr %29, align 8
  %31 = getelementptr inbounds nuw { i64, ptr }, ptr %9, i32 0, i32 0
  %32 = load i64, ptr %31, align 8
  %33 = getelementptr inbounds nuw { i64, ptr }, ptr %9, i32 0, i32 1
  %34 = load ptr, ptr %33, align 8
  %35 = call { i64, ptr } @jv_invalid_with_msg(i64 %32, ptr %34)
  %36 = getelementptr inbounds nuw { i64, ptr }, ptr %4, i32 0, i32 0
  %37 = extractvalue { i64, ptr } %35, 0
  store i64 %37, ptr %36, align 8
  %38 = getelementptr inbounds nuw { i64, ptr }, ptr %4, i32 0, i32 1
  %39 = extractvalue { i64, ptr } %35, 1
  store ptr %39, ptr %38, align 8
  call void @llvm.lifetime.end.p0(i64 8, ptr %8) #10
  call void @llvm.lifetime.end.p0(i64 15, ptr %7) #10
  %40 = load { i64, ptr }, ptr %4, align 8
  ret { i64, ptr } %40
}

; Function Attrs: nounwind uwtable
define internal { i64, ptr } @f_lgamma_r(ptr noundef %0, i64 %1, ptr %2) #0 {
  %4 = alloca %struct.jv, align 8
  %5 = alloca %struct.jv, align 8
  %6 = alloca ptr, align 8
  %7 = alloca i32, align 4
  %8 = alloca double, align 8
  %9 = alloca %struct.jv, align 8
  %10 = alloca %struct.jv, align 8
  %11 = alloca %struct.jv, align 8
  %12 = alloca %struct.jv, align 8
  %13 = getelementptr inbounds nuw { i64, ptr }, ptr %5, i32 0, i32 0
  store i64 %1, ptr %13, align 8
  %14 = getelementptr inbounds nuw { i64, ptr }, ptr %5, i32 0, i32 1
  store ptr %2, ptr %14, align 8
  store ptr %0, ptr %6, align 8, !tbaa !25
  %15 = getelementptr inbounds nuw { i64, ptr }, ptr %5, i32 0, i32 0
  %16 = load i64, ptr %15, align 8
  %17 = getelementptr inbounds nuw { i64, ptr }, ptr %5, i32 0, i32 1
  %18 = load ptr, ptr %17, align 8
  %19 = call i32 @jv_get_kind(i64 %16, ptr %18)
  %20 = icmp ne i32 %19, 4
  br i1 %20, label %21, label %31

21:                                               ; preds = %3
  %22 = getelementptr inbounds nuw { i64, ptr }, ptr %5, i32 0, i32 0
  %23 = load i64, ptr %22, align 8
  %24 = getelementptr inbounds nuw { i64, ptr }, ptr %5, i32 0, i32 1
  %25 = load ptr, ptr %24, align 8
  %26 = call { i64, ptr } @type_error(i64 %23, ptr %25, ptr noundef @.str.154)
  %27 = getelementptr inbounds nuw { i64, ptr }, ptr %4, i32 0, i32 0
  %28 = extractvalue { i64, ptr } %26, 0
  store i64 %28, ptr %27, align 8
  %29 = getelementptr inbounds nuw { i64, ptr }, ptr %4, i32 0, i32 1
  %30 = extractvalue { i64, ptr } %26, 1
  store ptr %30, ptr %29, align 8
  br label %86

31:                                               ; preds = %3
  call void @llvm.lifetime.start.p0(i64 4, ptr %7) #10
  call void @llvm.lifetime.start.p0(i64 8, ptr %8) #10
  %32 = getelementptr inbounds nuw { i64, ptr }, ptr %5, i32 0, i32 0
  %33 = load i64, ptr %32, align 8
  %34 = getelementptr inbounds nuw { i64, ptr }, ptr %5, i32 0, i32 1
  %35 = load ptr, ptr %34, align 8
  %36 = call double @jv_number_value(i64 %33, ptr %35)
  %37 = call double @lgamma_r(double noundef %36, ptr noundef %7) #10
  store double %37, ptr %8, align 8, !tbaa !20
  %38 = call { i64, ptr } @jv_array()
  %39 = getelementptr inbounds nuw { i64, ptr }, ptr %10, i32 0, i32 0
  %40 = extractvalue { i64, ptr } %38, 0
  store i64 %40, ptr %39, align 8
  %41 = getelementptr inbounds nuw { i64, ptr }, ptr %10, i32 0, i32 1
  %42 = extractvalue { i64, ptr } %38, 1
  store ptr %42, ptr %41, align 8
  %43 = load double, ptr %8, align 8, !tbaa !20
  %44 = call { i64, ptr } @jv_number(double noundef %43)
  %45 = getelementptr inbounds nuw { i64, ptr }, ptr %11, i32 0, i32 0
  %46 = extractvalue { i64, ptr } %44, 0
  store i64 %46, ptr %45, align 8
  %47 = getelementptr inbounds nuw { i64, ptr }, ptr %11, i32 0, i32 1
  %48 = extractvalue { i64, ptr } %44, 1
  store ptr %48, ptr %47, align 8
  %49 = getelementptr inbounds nuw { i64, ptr }, ptr %10, i32 0, i32 0
  %50 = load i64, ptr %49, align 8
  %51 = getelementptr inbounds nuw { i64, ptr }, ptr %10, i32 0, i32 1
  %52 = load ptr, ptr %51, align 8
  %53 = getelementptr inbounds nuw { i64, ptr }, ptr %11, i32 0, i32 0
  %54 = load i64, ptr %53, align 8
  %55 = getelementptr inbounds nuw { i64, ptr }, ptr %11, i32 0, i32 1
  %56 = load ptr, ptr %55, align 8
  %57 = call { i64, ptr } @jv_array_append(i64 %50, ptr %52, i64 %54, ptr %56)
  %58 = getelementptr inbounds nuw { i64, ptr }, ptr %9, i32 0, i32 0
  %59 = extractvalue { i64, ptr } %57, 0
  store i64 %59, ptr %58, align 8
  %60 = getelementptr inbounds nuw { i64, ptr }, ptr %9, i32 0, i32 1
  %61 = extractvalue { i64, ptr } %57, 1
  store ptr %61, ptr %60, align 8
  %62 = load i32, ptr %7, align 4, !tbaa !10
  %63 = sitofp i32 %62 to double
  %64 = call { i64, ptr } @jv_number(double noundef %63)
  %65 = getelementptr inbounds nuw { i64, ptr }, ptr %12, i32 0, i32 0
  %66 = extractvalue { i64, ptr } %64, 0
  store i64 %66, ptr %65, align 8
  %67 = getelementptr inbounds nuw { i64, ptr }, ptr %12, i32 0, i32 1
  %68 = extractvalue { i64, ptr } %64, 1
  store ptr %68, ptr %67, align 8
  %69 = getelementptr inbounds nuw { i64, ptr }, ptr %9, i32 0, i32 0
  %70 = load i64, ptr %69, align 8
  %71 = getelementptr inbounds nuw { i64, ptr }, ptr %9, i32 0, i32 1
  %72 = load ptr, ptr %71, align 8
  %73 = getelementptr inbounds nuw { i64, ptr }, ptr %12, i32 0, i32 0
  %74 = load i64, ptr %73, align 8
  %75 = getelementptr inbounds nuw { i64, ptr }, ptr %12, i32 0, i32 1
  %76 = load ptr, ptr %75, align 8
  %77 = call { i64, ptr } @jv_array_append(i64 %70, ptr %72, i64 %74, ptr %76)
  %78 = getelementptr inbounds nuw { i64, ptr }, ptr %4, i32 0, i32 0
  %79 = extractvalue { i64, ptr } %77, 0
  store i64 %79, ptr %78, align 8
  %80 = getelementptr inbounds nuw { i64, ptr }, ptr %4, i32 0, i32 1
  %81 = extractvalue { i64, ptr } %77, 1
  store ptr %81, ptr %80, align 8
  %82 = getelementptr inbounds nuw { i64, ptr }, ptr %5, i32 0, i32 0
  %83 = load i64, ptr %82, align 8
  %84 = getelementptr inbounds nuw { i64, ptr }, ptr %5, i32 0, i32 1
  %85 = load ptr, ptr %84, align 8
  call void @jv_free(i64 %83, ptr %85)
  call void @llvm.lifetime.end.p0(i64 8, ptr %8) #10
  call void @llvm.lifetime.end.p0(i64 4, ptr %7) #10
  br label %86

86:                                               ; preds = %31, %21
  %87 = load { i64, ptr }, ptr %4, align 8
  ret { i64, ptr } %87
}