; Function Attrs: nounwind uwtable
define internal { i64, ptr } @f_lgamma_r(ptr readnone captures(none) %0, i64 %1, ptr %2) #0 {
  %4 = alloca [15 x i8], align 1
  %5 = alloca i32, align 4
  %6 = tail call i32 @jv_get_kind(i64 %1, ptr %2) #14
  %.not = icmp eq i32 %6, 4
  br i1 %.not, label %15, label %7

7:                                                ; preds = %3
  call void @llvm.lifetime.start.p0(i64 15, ptr nonnull %4) #14
  %8 = tail call i32 @jv_get_kind(i64 %1, ptr %2) #14
  %9 = tail call ptr @jv_kind_name(i32 noundef %8) #14
  %10 = call ptr @jv_dump_string_trunc(i64 %1, ptr %2, ptr noundef nonnull %4, i64 noundef 15) #14
  %11 = call { i64, ptr } (ptr, ...) @jv_string_fmt(ptr noundef nonnull @.str.155, ptr noundef %9, ptr noundef %10, ptr noundef nonnull @.str.154) #14
  %12 = extractvalue { i64, ptr } %11, 0
  %13 = extractvalue { i64, ptr } %11, 1
  %14 = call { i64, ptr } @jv_invalid_with_msg(i64 %12, ptr %13) #14
  call void @llvm.lifetime.end.p0(i64 15, ptr nonnull %4) #14
  br label %33

15:                                               ; preds = %3
  call void @llvm.lifetime.start.p0(i64 4, ptr nonnull %5) #14
  %16 = tail call double @jv_number_value(i64 %1, ptr %2) #14
  %17 = call double @lgamma_r(double noundef %16, ptr noundef nonnull %5) #14
  %18 = call { i64, ptr } @jv_array() #14
  %19 = extractvalue { i64, ptr } %18, 0
  %20 = extractvalue { i64, ptr } %18, 1
  %21 = call { i64, ptr } @jv_number(double noundef %17) #14
  %22 = extractvalue { i64, ptr } %21, 0
  %23 = extractvalue { i64, ptr } %21, 1
  %24 = call { i64, ptr } @jv_array_append(i64 %19, ptr %20, i64 %22, ptr %23) #14
  %25 = extractvalue { i64, ptr } %24, 0
  %26 = extractvalue { i64, ptr } %24, 1
  %27 = load i32, ptr %5, align 4, !tbaa !19
  %28 = sitofp i32 %27 to double
  %29 = call { i64, ptr } @jv_number(double noundef %28) #14
  %30 = extractvalue { i64, ptr } %29, 0
  %31 = extractvalue { i64, ptr } %29, 1
  %32 = call { i64, ptr } @jv_array_append(i64 %25, ptr %26, i64 %30, ptr %31) #14
  call void @jv_free(i64 %1, ptr %2) #14
  call void @llvm.lifetime.end.p0(i64 4, ptr nonnull %5) #14
  br label %33

33:                                               ; preds = %15, %7
  %.pn = phi { i64, ptr } [ %14, %7 ], [ %32, %15 ]
  ret { i64, ptr } %.pn
}